target datalayout = "e-m:e-p270:32:32-p271:32:32-p272:64:64-i64:64-i128:128-f80:128-n8:16:32:64-S128"
target triple = "x86_64-pc-linux-gnu"

%"class.icu_77::UnicodeString" = type { %"class.icu_77::Replaceable", %"union.icu_77::UnicodeString::StackBufferOrFields" }
%"class.icu_77::Replaceable" = type { %"class.icu_77::UObject" }
%"class.icu_77::UObject" = type { ptr }
%"union.icu_77::UnicodeString::StackBufferOrFields" = type { %struct.anon.3, [32 x i8] }
%struct.anon.3 = type { i16, i32, i32, ptr }
%"class.icu_77::RegionNameEnumeration" = type { %"class.icu_77::StringEnumeration.base", i32, ptr }
%"class.icu_77::StringEnumeration.base" = type <{ %"class.icu_77::UObject", %"class.icu_77::UnicodeString", [32 x i8], ptr, i32 }>

; Function Attrs: inlinehint mustprogress nounwind uwtable
define internal noundef signext i8 @_ZL9U_FAILURE10UErrorCode(i32 noundef %0) #2 {
  %2 = alloca i32, align 4
  store i32 %0, ptr %2, align 4, !tbaa !15
  %3 = load i32, ptr %2, align 4, !tbaa !15
  %4 = icmp sgt i32 %3, 0
  %5 = zext i1 %4 to i8
  ret i8 %5
}

; Function Attrs: mustprogress uwtable
define noundef ptr @_ZN6icu_7721RegionNameEnumeration5snextER10UErrorCode(ptr noundef nonnull align 8 dereferenceable(128) %0, ptr noundef nonnull align 4 dereferenceable(4) %1) unnamed_addr #1 align 2 {
  %3 = alloca ptr, align 8
  %4 = alloca ptr, align 8
  %5 = alloca ptr, align 8
  %6 = alloca ptr, align 8
  store ptr %0, ptr %4, align 8, !tbaa !23
  store ptr %1, ptr %5, align 8, !tbaa !22
  %7 = load ptr, ptr %4, align 8
  %8 = load ptr, ptr %5, align 8, !tbaa !22
  %9 = load i32, ptr %8, align 4, !tbaa !15
  %10 = call noundef signext i8 @_ZL9U_FAILURE10UErrorCode(i32 noundef %9)
  %11 = icmp ne i8 %10, 0
  br i1 %11, label %16, label %12

12:                                               ; preds = %2
  %13 = getelementptr inbounds nuw %"class.icu_77::RegionNameEnumeration", ptr %7, i32 0, i32 2
  %14 = load ptr, ptr %13, align 8, !tbaa !137
  %15 = icmp eq ptr %14, null
  br i1 %15, label %16, label %17

16:                                               ; preds = %12, %2
  store ptr null, ptr %3, align 8
  br label %31

17:                                               ; preds = %12
  call void @llvm.lifetime.start.p0(i64 8, ptr %6) #12
  %18 = getelementptr inbounds nuw %"class.icu_77::RegionNameEnumeration", ptr %7, i32 0, i32 2
  %19 = load ptr, ptr %18, align 8, !tbaa !137
  %20 = getelementptr inbounds nuw %"class.icu_77::RegionNameEnumeration", ptr %7, i32 0, i32 1
  %21 = load i32, ptr %20, align 4, !tbaa !134
  %22 = call noundef ptr @_ZNK6icu_777UVector9elementAtEi(ptr noundef nonnull align 8 dereferenceable(40) %19, i32 noundef %21)
  store ptr %22, ptr %6, align 8, !tbaa !35
  %23 = load ptr, ptr %6, align 8, !tbaa !35
  %24 = icmp ne ptr %23, null
  br i1 %24, label %25, label %29

25:                                               ; preds = %17
  %26 = getelementptr inbounds nuw %"class.icu_77::RegionNameEnumeration", ptr %7, i32 0, i32 1
  %27 = load i32, ptr %26, align 4, !tbaa !134
  %28 = add nsw i32 %27, 1
  store i32 %28, ptr %26, align 4, !tbaa !134
  br label %29

29:                                               ; preds = %25, %17
  %30 = load ptr, ptr %6, align 8, !tbaa !35
  store ptr %30, ptr %3, align 8
  call void @llvm.lifetime.end.p0(i64 8, ptr %6) #12
  br label %31

31:                                               ; preds = %29, %16
  %32 = load ptr, ptr %3, align 8
  ret ptr %32
}