; Function Attrs: mustprogress uwtable
define noundef ptr @_ZN6icu_7721RegionNameEnumeration5snextER10UErrorCode(ptr noundef nonnull align 8 captures(none) dereferenceable(128) %0, ptr noundef nonnull readonly align 4 captures(none) dereferenceable(4) %1) unnamed_addr #1 align 2 {
  %3 = load i32, ptr %1, align 4, !tbaa !13
  %4 = icmp slt i32 %3, 1
  br i1 %4, label %5, label %16

5:                                                ; preds = %2
  %6 = getelementptr inbounds nuw i8, ptr %0, i64 120
  %7 = load ptr, ptr %6, align 8, !tbaa !108
  %8 = icmp eq ptr %7, null
  br i1 %8, label %16, label %9

9:                                                ; preds = %5
  %10 = getelementptr inbounds nuw i8, ptr %0, i64 116
  %11 = load i32, ptr %10, align 4, !tbaa !105
  %12 = tail call noundef ptr @_ZNK6icu_777UVector9elementAtEi(ptr noundef nonnull align 8 dereferenceable(40) %7, i32 noundef %11)
  %.not6 = icmp eq ptr %12, null
  br i1 %.not6, label %16, label %13

13:                                               ; preds = %9
  %14 = load i32, ptr %10, align 4, !tbaa !105
  %15 = add nsw i32 %14, 1
  store i32 %15, ptr %10, align 4, !tbaa !105
  br label %16

16:                                               ; preds = %9, %13, %2, %5
  %.0 = phi ptr [ null, %5 ], [ null, %2 ], [ %12, %13 ], [ null, %9 ]
  ret ptr %.0
}